target datalayout = "e-m:e-p270:32:32-p271:32:32-p272:64:64-i64:64-i128:128-f80:128-n8:16:32:64-S128"
target triple = "x86_64-pc-linux-gnu"

%"class.pxrInternal_v0_24__pxrReserved__::HdDataSourceLocatorSet" = type { %"class.pxrInternal_v0_24__pxrReserved__::TfSmallVector" }
%"class.pxrInternal_v0_24__pxrReserved__::TfSmallVector" = type { %"union.pxrInternal_v0_24__pxrReserved__::TfSmallVectorBase::_DataUnion", i32, i32 }
%"union.pxrInternal_v0_24__pxrReserved__::TfSmallVectorBase::_DataUnion" = type { ptr, [440 x i8] }
%"class.pxrInternal_v0_24__pxrReserved__::TfToken" = type { %"class.pxrInternal_v0_24__pxrReserved__::TfPointerAndBits" }
%"class.pxrInternal_v0_24__pxrReserved__::TfPointerAndBits" = type { ptr }
%"struct.std::atomic.10" = type { %"struct.std::__atomic_base.11" }
%"struct.std::__atomic_base.11" = type { i8 }
%"class.pxrInternal_v0_24__pxrReserved__::TfRefPtr" = type { ptr }
%"class.pxrInternal_v0_24__pxrReserved__::SdfPath" = type { %"struct.pxrInternal_v0_24__pxrReserved__::Sdf_PathNodeHandleImpl", %"struct.pxrInternal_v0_24__pxrReserved__::Sdf_PathNodeHandleImpl.0" }
%"struct.pxrInternal_v0_24__pxrReserved__::Sdf_PathNodeHandleImpl" = type { %"struct.pxrInternal_v0_24__pxrReserved__::Sdf_Pool<pxrInternal_v0_24__pxrReserved__::Sdf_PathPrimTag, 24, 8>::Handle" }
%"struct.pxrInternal_v0_24__pxrReserved__::Sdf_Pool<pxrInternal_v0_24__pxrReserved__::Sdf_PathPrimTag, 24, 8>::Handle" = type { i32 }
%"struct.pxrInternal_v0_24__pxrReserved__::Sdf_PathNodeHandleImpl.0" = type { %"struct.pxrInternal_v0_24__pxrReserved__::Sdf_Pool<pxrInternal_v0_24__pxrReserved__::Sdf_PathPropTag, 24, 8>::Handle" }
%"struct.pxrInternal_v0_24__pxrReserved__::Sdf_Pool<pxrInternal_v0_24__pxrReserved__::Sdf_PathPropTag, 24, 8>::Handle" = type { i32 }
%"class.pxrInternal_v0_24__pxrReserved__::HdSceneIndexAdapterSceneDelegate" = type { %"class.pxrInternal_v0_24__pxrReserved__::HdSceneDelegate", %"class.pxrInternal_v0_24__pxrReserved__::HdSceneIndexObserver", %"class.tbb::detail::d1::concurrent_unordered_map", %"class.pxrInternal_v0_24__pxrReserved__::TfRefPtr", %"class.pxrInternal_v0_24__pxrReserved__::SdfPathTable", i8, %"class.std::vector.12", %"class.pxrInternal_v0_24__pxrReserved__::HdDataSourceLocatorSet", i32, %"class.pxrInternal_v0_24__pxrReserved__::TfToken" }
%"class.pxrInternal_v0_24__pxrReserved__::HdSceneDelegate" = type { ptr, ptr, %"class.pxrInternal_v0_24__pxrReserved__::SdfPath" }
%"class.pxrInternal_v0_24__pxrReserved__::HdSceneIndexObserver" = type { ptr, %"class.pxrInternal_v0_24__pxrReserved__::TfWeakBase" }
%"class.pxrInternal_v0_24__pxrReserved__::TfWeakBase" = type { %"struct.std::atomic" }
%"struct.std::atomic" = type { %"struct.std::__atomic_base" }
%"struct.std::__atomic_base" = type { ptr }
%"class.tbb::detail::d1::concurrent_unordered_map" = type { %"class.tbb::detail::d1::concurrent_unordered_base" }
%"class.tbb::detail::d1::concurrent_unordered_base" = type { %"struct.std::atomic.2", %"struct.std::atomic.2", float, %"class.tbb::detail::d1::list_node", %"class.tbb::detail::d1::concurrent_unordered_base<tbb::detail::d1::concurrent_unordered_map_traits<std::thread::id, std::pair<pxrInternal_v0_24__pxrReserved__::SdfPath, pxrInternal_v0_24__pxrReserved__::HdSceneIndexPrim>, std::hash<thread::id>, std::equal_to<std::thread::id>, tbb::detail::d1::tbb_allocator<std::pair<const std::thread::id, std::pair<pxrInternal_v0_24__pxrReserved__::SdfPath, pxrInternal_v0_24__pxrReserved__::HdSceneIndexPrim>>>, false>>::unordered_segment_table" }
%"struct.std::atomic.2" = type { %"struct.std::__atomic_base.3" }
%"struct.std::__atomic_base.3" = type { i64 }
%"class.tbb::detail::d1::list_node" = type { %"struct.std::atomic.4", i64 }
%"struct.std::atomic.4" = type { %"struct.std::__atomic_base.5" }
%"struct.std::__atomic_base.5" = type { ptr }
%"class.tbb::detail::d1::concurrent_unordered_base<tbb::detail::d1::concurrent_unordered_map_traits<std::thread::id, std::pair<pxrInternal_v0_24__pxrReserved__::SdfPath, pxrInternal_v0_24__pxrReserved__::HdSceneIndexPrim>, std::hash<thread::id>, std::equal_to<std::thread::id>, tbb::detail::d1::tbb_allocator<std::pair<const std::thread::id, std::pair<pxrInternal_v0_24__pxrReserved__::SdfPath, pxrInternal_v0_24__pxrReserved__::HdSceneIndexPrim>>>, false>>::unordered_segment_table" = type { %"class.tbb::detail::d1::segment_table.base", [7 x i8] }
%"class.tbb::detail::d1::segment_table.base" = type <{ ptr, [8 x i8], %"struct.std::atomic.6", [63 x %"struct.std::atomic.8"], %"struct.std::atomic.2", %"struct.std::atomic.2", %"struct.std::atomic.10" }>
%"struct.std::atomic.6" = type { %"struct.std::__atomic_base.7" }
%"struct.std::__atomic_base.7" = type { ptr }
%"struct.std::atomic.8" = type { %"struct.std::__atomic_base.9" }
%"struct.std::__atomic_base.9" = type { ptr }
%"class.pxrInternal_v0_24__pxrReserved__::SdfPathTable" = type { %"class.std::vector", i64, i64 }
%"class.std::vector" = type { %"struct.std::_Vector_base" }
%"struct.std::_Vector_base" = type { %"struct.std::_Vector_base<pxrInternal_v0_24__pxrReserved__::SdfPathTable<pxrInternal_v0_24__pxrReserved__::HdSceneIndexAdapterSceneDelegate::_PrimCacheEntry>::_Entry *, std::allocator<pxrInternal_v0_24__pxrReserved__::SdfPathTable<pxrInternal_v0_24__pxrReserved__::HdSceneIndexAdapterSceneDelegate::_PrimCacheEntry>::_Entry *>>::_Vector_impl" }
%"struct.std::_Vector_base<pxrInternal_v0_24__pxrReserved__::SdfPathTable<pxrInternal_v0_24__pxrReserved__::HdSceneIndexAdapterSceneDelegate::_PrimCacheEntry>::_Entry *, std::allocator<pxrInternal_v0_24__pxrReserved__::SdfPathTable<pxrInternal_v0_24__pxrReserved__::HdSceneIndexAdapterSceneDelegate::_PrimCacheEntry>::_Entry *>>::_Vector_impl" = type { %"struct.std::_Vector_base<pxrInternal_v0_24__pxrReserved__::SdfPathTable<pxrInternal_v0_24__pxrReserved__::HdSceneIndexAdapterSceneDelegate::_PrimCacheEntry>::_Entry *, std::allocator<pxrInternal_v0_24__pxrReserved__::SdfPathTable<pxrInternal_v0_24__pxrReserved__::HdSceneIndexAdapterSceneDelegate::_PrimCacheEntry>::_Entry *>>::_Vector_impl_data" }
%"struct.std::_Vector_base<pxrInternal_v0_24__pxrReserved__::SdfPathTable<pxrInternal_v0_24__pxrReserved__::HdSceneIndexAdapterSceneDelegate::_PrimCacheEntry>::_Entry *, std::allocator<pxrInternal_v0_24__pxrReserved__::SdfPathTable<pxrInternal_v0_24__pxrReserved__::HdSceneIndexAdapterSceneDelegate::_PrimCacheEntry>::_Entry *>>::_Vector_impl_data" = type { ptr, ptr, ptr }
%"class.std::vector.12" = type { %"struct.std::_Vector_base.13" }
%"struct.std::_Vector_base.13" = type { %"struct.std::_Vector_base<pxrInternal_v0_24__pxrReserved__::HdSceneDelegate *, std::allocator<pxrInternal_v0_24__pxrReserved__::HdSceneDelegate *>>::_Vector_impl" }
%"struct.std::_Vector_base<pxrInternal_v0_24__pxrReserved__::HdSceneDelegate *, std::allocator<pxrInternal_v0_24__pxrReserved__::HdSceneDelegate *>>::_Vector_impl" = type { %"struct.std::_Vector_base<pxrInternal_v0_24__pxrReserved__::HdSceneDelegate *, std::allocator<pxrInternal_v0_24__pxrReserved__::HdSceneDelegate *>>::_Vector_impl_data" }
%"struct.std::_Vector_base<pxrInternal_v0_24__pxrReserved__::HdSceneDelegate *, std::allocator<pxrInternal_v0_24__pxrReserved__::HdSceneDelegate *>>::_Vector_impl_data" = type { ptr, ptr, ptr }
%"class.pxrInternal_v0_24__pxrReserved__::TfCallContext" = type <{ ptr, ptr, i64, ptr, i8, [7 x i8] }>
%"class.__gnu_cxx::__normal_iterator.446" = type { ptr }

@.str.40 = private unnamed_addr constant [143 x i8] c"generated/home/dtcxzyw/WorkSpace/Projects/compilers/llvm-opt-benchmark/bench/openusd/OpenUSD/pxr/imaging/hd/sceneIndexAdapterSceneDelegate.cpp\00", align 1
@.str.80 = private unnamed_addr constant [14 x i8] c"sd != nullptr\00", align 1
@__func__._ZN32pxrInternal_v0_24__pxrReserved__32HdSceneIndexAdapterSceneDelegate15PostSyncCleanupEv = private unnamed_addr constant [16 x i8] c"PostSyncCleanup\00", align 1
@__PRETTY_FUNCTION__._ZN32pxrInternal_v0_24__pxrReserved__32HdSceneIndexAdapterSceneDelegate15PostSyncCleanupEv = private unnamed_addr constant [99 x i8] c"virtual void pxrInternal_v0_24__pxrReserved__::HdSceneIndexAdapterSceneDelegate::PostSyncCleanup()\00", align 1

; Function Attrs: mustprogress nounwind uwtable
define linkonce_odr noundef nonnull align 8 dereferenceable(8) ptr @_ZNK9__gnu_cxx17__normal_iteratorIPPN32pxrInternal_v0_24__pxrReserved__15HdSceneDelegateESt6vectorIS3_SaIS3_EEE4baseEv(ptr noundef nonnull align 8 dereferenceable(8) %0) #1 comdat align 2 {
  %2 = alloca ptr, align 8
  store ptr %0, ptr %2, align 8
  %3 = load ptr, ptr %2, align 8
  %4 = getelementptr inbounds nuw %"class.__gnu_cxx::__normal_iterator.446", ptr %3, i32 0, i32 0
  ret ptr %4
}

; Function Attrs: mustprogress nounwind uwtable
define linkonce_odr void @_ZN9__gnu_cxx17__normal_iteratorIPPN32pxrInternal_v0_24__pxrReserved__15HdSceneDelegateESt6vectorIS3_SaIS3_EEEC2ERKS4_(ptr noundef nonnull align 8 dereferenceable(8) %0, ptr noundef nonnull align 8 dereferenceable(8) %1) unnamed_addr #1 comdat align 2 {
  %3 = alloca ptr, align 8
  %4 = alloca ptr, align 8
  store ptr %0, ptr %3, align 8
  store ptr %1, ptr %4, align 8
  %5 = load ptr, ptr %3, align 8
  %6 = getelementptr inbounds nuw %"class.__gnu_cxx::__normal_iterator.446", ptr %5, i32 0, i32 0
  %7 = load ptr, ptr %4, align 8
  %8 = load ptr, ptr %7, align 8
  store ptr %8, ptr %6, align 8
  ret void
}

; Function Attrs: mustprogress nounwind uwtable
define linkonce_odr void @_ZN3tbb6detail2d125concurrent_unordered_baseINS1_31concurrent_unordered_map_traitsINSt6thread2idESt4pairIN32pxrInternal_v0_24__pxrReserved__7SdfPathENS7_16HdSceneIndexPrimEESt4hashIS5_ESt8equal_toIS5_ENS1_13tbb_allocatorIS6_IKS5_SA_EEELb0EEEE5clearEv(ptr noundef nonnull align 8 dereferenceable(592) %0) #1 comdat align 2 personality ptr @__gxx_personality_v0 {
  %2 = alloca ptr, align 8
  store ptr %0, ptr %2, align 8
  %3 = load ptr, ptr %2, align 8
  invoke void @_ZN3tbb6detail2d125concurrent_unordered_baseINS1_31concurrent_unordered_map_traitsINSt6thread2idESt4pairIN32pxrInternal_v0_24__pxrReserved__7SdfPathENS7_16HdSceneIndexPrimEESt4hashIS5_ESt8equal_toIS5_ENS1_13tbb_allocatorIS6_IKS5_SA_EEELb0EEEE14internal_clearEv(ptr noundef nonnull align 8 dereferenceable(592) %3)
          to label %4 unwind label %5

4:                                                ; preds = %1
  ret void

5:                                                ; preds = %1
  %6 = landingpad { ptr, i32 }
          catch ptr null
  %7 = extractvalue { ptr, i32 } %6, 0
  call void @__clang_call_terminate(ptr %7) #23
  unreachable
}

; Function Attrs: mustprogress nounwind uwtable
define linkonce_odr noundef nonnull align 8 dereferenceable(8) ptr @_ZN9__gnu_cxx17__normal_iteratorIPPN32pxrInternal_v0_24__pxrReserved__15HdSceneDelegateESt6vectorIS3_SaIS3_EEEppEv(ptr noundef nonnull align 8 dereferenceable(8) %0) #1 comdat align 2 {
  %2 = alloca ptr, align 8
  store ptr %0, ptr %2, align 8
  %3 = load ptr, ptr %2, align 8
  %4 = getelementptr inbounds nuw %"class.__gnu_cxx::__normal_iterator.446", ptr %3, i32 0, i32 0
  %5 = load ptr, ptr %4, align 8
  %6 = getelementptr inbounds ptr, ptr %5, i32 1
  store ptr %6, ptr %4, align 8
  ret ptr %3
}

; Function Attrs: mustprogress nounwind uwtable
define linkonce_odr noundef ptr @_ZN32pxrInternal_v0_24__pxrReserved__21Tf_VerifyStringFormatEv() #1 comdat {
  ret ptr null
}

; Function Attrs: mustprogress nounwind uwtable
define linkonce_odr void @_ZN32pxrInternal_v0_24__pxrReserved__13TfCallContextC2EPKcS2_mS2_(ptr noundef nonnull align 8 dereferenceable(33) %0, ptr noundef %1, ptr noundef %2, i64 noundef %3, ptr noundef %4) unnamed_addr #1 comdat align 2 {
  %6 = alloca ptr, align 8
  %7 = alloca ptr, align 8
  %8 = alloca ptr, align 8
  %9 = alloca i64, align 8
  %10 = alloca ptr, align 8
  store ptr %0, ptr %6, align 8
  store ptr %1, ptr %7, align 8
  store ptr %2, ptr %8, align 8
  store i64 %3, ptr %9, align 8
  store ptr %4, ptr %10, align 8
  %11 = load ptr, ptr %6, align 8
  %12 = getelementptr inbounds nuw %"class.pxrInternal_v0_24__pxrReserved__::TfCallContext", ptr %11, i32 0, i32 0
  %13 = load ptr, ptr %7, align 8
  store ptr %13, ptr %12, align 8
  %14 = getelementptr inbounds nuw %"class.pxrInternal_v0_24__pxrReserved__::TfCallContext", ptr %11, i32 0, i32 1
  %15 = load ptr, ptr %8, align 8
  store ptr %15, ptr %14, align 8
  %16 = getelementptr inbounds nuw %"class.pxrInternal_v0_24__pxrReserved__::TfCallContext", ptr %11, i32 0, i32 2
  %17 = load i64, ptr %9, align 8
  store i64 %17, ptr %16, align 8
  %18 = getelementptr inbounds nuw %"class.pxrInternal_v0_24__pxrReserved__::TfCallContext", ptr %11, i32 0, i32 3
  %19 = load ptr, ptr %10, align 8
  store ptr %19, ptr %18, align 8
  %20 = getelementptr inbounds nuw %"class.pxrInternal_v0_24__pxrReserved__::TfCallContext", ptr %11, i32 0, i32 4
  store i8 0, ptr %20, align 8
  ret void
}

; Function Attrs: mustprogress nounwind uwtable
define linkonce_odr noundef nonnull align 8 dereferenceable(8) ptr @_ZNK9__gnu_cxx17__normal_iteratorIPPN32pxrInternal_v0_24__pxrReserved__15HdSceneDelegateESt6vectorIS3_SaIS3_EEEdeEv(ptr noundef nonnull align 8 dereferenceable(8) %0) #1 comdat align 2 {
  %2 = alloca ptr, align 8
  store ptr %0, ptr %2, align 8
  %3 = load ptr, ptr %2, align 8
  %4 = getelementptr inbounds nuw %"class.__gnu_cxx::__normal_iterator.446", ptr %3, i32 0, i32 0
  %5 = load ptr, ptr %4, align 8
  ret ptr %5
}

; Function Attrs: mustprogress nounwind uwtable
define linkonce_odr noundef zeroext i1 @_ZN9__gnu_cxxneIPPN32pxrInternal_v0_24__pxrReserved__15HdSceneDelegateESt6vectorIS3_SaIS3_EEEEbRKNS_17__normal_iteratorIT_T0_EESD_(ptr noundef nonnull align 8 dereferenceable(8) %0, ptr noundef nonnull align 8 dereferenceable(8) %1) #1 comdat {
  %3 = alloca ptr, align 8
  %4 = alloca ptr, align 8
  store ptr %0, ptr %3, align 8
  store ptr %1, ptr %4, align 8
  %5 = load ptr, ptr %3, align 8
  %6 = call noundef nonnull align 8 dereferenceable(8) ptr @_ZNK9__gnu_cxx17__normal_iteratorIPPN32pxrInternal_v0_24__pxrReserved__15HdSceneDelegateESt6vectorIS3_SaIS3_EEE4baseEv(ptr noundef nonnull align 8 dereferenceable(8) %5) #8
  %7 = load ptr, ptr %6, align 8
  %8 = load ptr, ptr %4, align 8
  %9 = call noundef nonnull align 8 dereferenceable(8) ptr @_ZNK9__gnu_cxx17__normal_iteratorIPPN32pxrInternal_v0_24__pxrReserved__15HdSceneDelegateESt6vectorIS3_SaIS3_EEE4baseEv(ptr noundef nonnull align 8 dereferenceable(8) %8) #8
  %10 = load ptr, ptr %9, align 8
  %11 = icmp ne ptr %7, %10
  ret i1 %11
}

; Function Attrs: mustprogress nounwind uwtable
define linkonce_odr ptr @_ZNSt6vectorIPN32pxrInternal_v0_24__pxrReserved__15HdSceneDelegateESaIS2_EE3endEv(ptr noundef nonnull align 8 dereferenceable(24) %0) #1 comdat align 2 {
  %2 = alloca %"class.__gnu_cxx::__normal_iterator.446", align 8
  %3 = alloca ptr, align 8
  store ptr %0, ptr %3, align 8
  %4 = load ptr, ptr %3, align 8
  %5 = getelementptr inbounds nuw %"struct.std::_Vector_base.13", ptr %4, i32 0, i32 0
  %6 = getelementptr inbounds nuw %"struct.std::_Vector_base<pxrInternal_v0_24__pxrReserved__::HdSceneDelegate *, std::allocator<pxrInternal_v0_24__pxrReserved__::HdSceneDelegate *>>::_Vector_impl_data", ptr %5, i32 0, i32 1
  call void @_ZN9__gnu_cxx17__normal_iteratorIPPN32pxrInternal_v0_24__pxrReserved__15HdSceneDelegateESt6vectorIS3_SaIS3_EEEC2ERKS4_(ptr noundef nonnull align 8 dereferenceable(8) %2, ptr noundef nonnull align 8 dereferenceable(8) %6) #8
  %7 = getelementptr inbounds nuw %"class.__gnu_cxx::__normal_iterator.446", ptr %2, i32 0, i32 0
  %8 = load ptr, ptr %7, align 8
  ret ptr %8
}

; Function Attrs: mustprogress nounwind uwtable
define linkonce_odr ptr @_ZNSt6vectorIPN32pxrInternal_v0_24__pxrReserved__15HdSceneDelegateESaIS2_EE5beginEv(ptr noundef nonnull align 8 dereferenceable(24) %0) #1 comdat align 2 {
  %2 = alloca %"class.__gnu_cxx::__normal_iterator.446", align 8
  %3 = alloca ptr, align 8
  store ptr %0, ptr %3, align 8
  %4 = load ptr, ptr %3, align 8
  %5 = getelementptr inbounds nuw %"struct.std::_Vector_base.13", ptr %4, i32 0, i32 0
  %6 = getelementptr inbounds nuw %"struct.std::_Vector_base<pxrInternal_v0_24__pxrReserved__::HdSceneDelegate *, std::allocator<pxrInternal_v0_24__pxrReserved__::HdSceneDelegate *>>::_Vector_impl_data", ptr %5, i32 0, i32 0
  call void @_ZN9__gnu_cxx17__normal_iteratorIPPN32pxrInternal_v0_24__pxrReserved__15HdSceneDelegateESt6vectorIS3_SaIS3_EEEC2ERKS4_(ptr noundef nonnull align 8 dereferenceable(8) %2, ptr noundef nonnull align 8 dereferenceable(8) %6) #8
  %7 = getelementptr inbounds nuw %"class.__gnu_cxx::__normal_iterator.446", ptr %2, i32 0, i32 0
  %8 = load ptr, ptr %7, align 8
  ret ptr %8
}

; Function Attrs: mustprogress uwtable
define void @_ZN32pxrInternal_v0_24__pxrReserved__32HdSceneIndexAdapterSceneDelegate15PostSyncCleanupEv(ptr noundef nonnull align 8 dereferenceable(1184) %0) unnamed_addr #0 align 2 {
  %2 = alloca ptr, align 8
  %3 = alloca ptr, align 8
  %4 = alloca %"class.__gnu_cxx::__normal_iterator.446", align 8
  %5 = alloca %"class.__gnu_cxx::__normal_iterator.446", align 8
  %6 = alloca ptr, align 8
  %7 = alloca %"class.pxrInternal_v0_24__pxrReserved__::TfCallContext", align 8
  store ptr %0, ptr %2, align 8
  %8 = load ptr, ptr %2, align 8
  %9 = getelementptr inbounds nuw %"class.pxrInternal_v0_24__pxrReserved__::HdSceneIndexAdapterSceneDelegate", ptr %8, i32 0, i32 5
  %10 = load i8, ptr %9, align 8
  %11 = trunc i8 %10 to i1
  br i1 %11, label %13, label %12

12:                                               ; preds = %1
  br label %44

13:                                               ; preds = %1
  %14 = getelementptr inbounds nuw %"class.pxrInternal_v0_24__pxrReserved__::HdSceneIndexAdapterSceneDelegate", ptr %8, i32 0, i32 6
  store ptr %14, ptr %3, align 8
  %15 = load ptr, ptr %3, align 8
  %16 = call ptr @_ZNSt6vectorIPN32pxrInternal_v0_24__pxrReserved__15HdSceneDelegateESaIS2_EE5beginEv(ptr noundef nonnull align 8 dereferenceable(24) %15) #8
  %17 = getelementptr inbounds nuw %"class.__gnu_cxx::__normal_iterator.446", ptr %4, i32 0, i32 0
  store ptr %16, ptr %17, align 8
  %18 = load ptr, ptr %3, align 8
  %19 = call ptr @_ZNSt6vectorIPN32pxrInternal_v0_24__pxrReserved__15HdSceneDelegateESaIS2_EE3endEv(ptr noundef nonnull align 8 dereferenceable(24) %18) #8
  %20 = getelementptr inbounds nuw %"class.__gnu_cxx::__normal_iterator.446", ptr %5, i32 0, i32 0
  store ptr %19, ptr %20, align 8
  br label %21

21:                                               ; preds = %40, %13
  %22 = call noundef zeroext i1 @_ZN9__gnu_cxxneIPPN32pxrInternal_v0_24__pxrReserved__15HdSceneDelegateESt6vectorIS3_SaIS3_EEEEbRKNS_17__normal_iteratorIT_T0_EESD_(ptr noundef nonnull align 8 dereferenceable(8) %4, ptr noundef nonnull align 8 dereferenceable(8) %5) #8
  br i1 %22, label %23, label %42

23:                                               ; preds = %21
  %24 = call noundef nonnull align 8 dereferenceable(8) ptr @_ZNK9__gnu_cxx17__normal_iteratorIPPN32pxrInternal_v0_24__pxrReserved__15HdSceneDelegateESt6vectorIS3_SaIS3_EEEdeEv(ptr noundef nonnull align 8 dereferenceable(8) %4) #8
  %25 = load ptr, ptr %24, align 8
  store ptr %25, ptr %6, align 8
  %26 = load ptr, ptr %6, align 8
  %27 = icmp ne ptr %26, null
  br i1 %27, label %28, label %29

28:                                               ; preds = %23
  br label %32

29:                                               ; preds = %23
  call void @_ZN32pxrInternal_v0_24__pxrReserved__13TfCallContextC2EPKcS2_mS2_(ptr noundef nonnull align 8 dereferenceable(33) %7, ptr noundef @.str.40, ptr noundef @__func__._ZN32pxrInternal_v0_24__pxrReserved__32HdSceneIndexAdapterSceneDelegate15PostSyncCleanupEv, i64 noundef 2781, ptr noundef @__PRETTY_FUNCTION__._ZN32pxrInternal_v0_24__pxrReserved__32HdSceneIndexAdapterSceneDelegate15PostSyncCleanupEv)
  %30 = call noundef ptr @_ZN32pxrInternal_v0_24__pxrReserved__21Tf_VerifyStringFormatEv()
  %31 = call noundef zeroext i1 @_ZN32pxrInternal_v0_24__pxrReserved__21Tf_FailedVerifyHelperERKNS_13TfCallContextEPKcS4_(ptr noundef nonnull align 8 dereferenceable(33) %7, ptr noundef @.str.80, ptr noundef %30)
  br label %32

32:                                               ; preds = %29, %28
  %33 = phi i1 [ true, %28 ], [ %31, %29 ]
  br i1 %33, label %34, label %39

34:                                               ; preds = %32
  %35 = load ptr, ptr %6, align 8
  %36 = load ptr, ptr %35, align 8
  %37 = getelementptr inbounds ptr, ptr %36, i64 3
  %38 = load ptr, ptr %37, align 8
  call void %38(ptr noundef nonnull align 8 dereferenceable(24) %35)
  br label %39

39:                                               ; preds = %34, %32
  br label %40

40:                                               ; preds = %39
  %41 = call noundef nonnull align 8 dereferenceable(8) ptr @_ZN9__gnu_cxx17__normal_iteratorIPPN32pxrInternal_v0_24__pxrReserved__15HdSceneDelegateESt6vectorIS3_SaIS3_EEEppEv(ptr noundef nonnull align 8 dereferenceable(8) %4) #8
  br label %21

42:                                               ; preds = %21
  %43 = getelementptr inbounds nuw %"class.pxrInternal_v0_24__pxrReserved__::HdSceneIndexAdapterSceneDelegate", ptr %8, i32 0, i32 2
  call void @_ZN3tbb6detail2d125concurrent_unordered_baseINS1_31concurrent_unordered_map_traitsINSt6thread2idESt4pairIN32pxrInternal_v0_24__pxrReserved__7SdfPathENS7_16HdSceneIndexPrimEESt4hashIS5_ESt8equal_toIS5_ENS1_13tbb_allocatorIS6_IKS5_SA_EEELb0EEEE5clearEv(ptr noundef nonnull align 8 dereferenceable(592) %43) #8
  br label %44

44:                                               ; preds = %42, %12
  ret void
}