; Function Attrs: mustprogress uwtable
define void @_ZN32pxrInternal_v0_24__pxrReserved__32HdSceneIndexAdapterSceneDelegate15PostSyncCleanupEv(ptr noundef nonnull align 8 dereferenceable(1184) %0) unnamed_addr #0 align 2 personality ptr @__gxx_personality_v0 {
  %2 = alloca %"class.pxrInternal_v0_24__pxrReserved__::TfCallContext", align 8
  %3 = getelementptr inbounds nuw i8, ptr %0, i64 680
  %4 = load i8, ptr %3, align 8
  %5 = trunc i8 %4 to i1
  br i1 %5, label %6, label %_ZN3tbb6detail2d125concurrent_unordered_baseINS1_31concurrent_unordered_map_traitsINSt6thread2idESt4pairIN32pxrInternal_v0_24__pxrReserved__7SdfPathENS7_16HdSceneIndexPrimEESt4hashIS5_ESt8equal_toIS5_ENS1_13tbb_allocatorIS6_IKS5_SA_EEELb0EEEE5clearEv.exit

6:                                                ; preds = %1
  %7 = getelementptr inbounds nuw i8, ptr %0, i64 688
  %8 = load ptr, ptr %7, align 8
  %9 = getelementptr inbounds nuw i8, ptr %0, i64 696
  %10 = load ptr, ptr %9, align 8
  %.not89 = icmp eq ptr %8, %10
  br i1 %.not89, label %._crit_edge, label %.lr.ph

.lr.ph:                                           ; preds = %6
  %11 = getelementptr inbounds nuw i8, ptr %2, i64 8
  %12 = getelementptr inbounds nuw i8, ptr %2, i64 16
  %13 = getelementptr inbounds nuw i8, ptr %2, i64 24
  %14 = getelementptr inbounds nuw i8, ptr %2, i64 32
  br label %15

15:                                               ; preds = %.lr.ph, %22
  %.sroa.05.010 = phi ptr [ %8, %.lr.ph ], [ %23, %22 ]
  %16 = load ptr, ptr %.sroa.05.010, align 8
  %.not = icmp eq ptr %16, null
  br i1 %.not, label %17, label %.critedge

17:                                               ; preds = %15
  store ptr @.str.40, ptr %2, align 8
  store ptr @__func__._ZN32pxrInternal_v0_24__pxrReserved__32HdSceneIndexAdapterSceneDelegate15PostSyncCleanupEv, ptr %11, align 8
  store i64 2781, ptr %12, align 8
  store ptr @__PRETTY_FUNCTION__._ZN32pxrInternal_v0_24__pxrReserved__32HdSceneIndexAdapterSceneDelegate15PostSyncCleanupEv, ptr %13, align 8
  store i8 0, ptr %14, align 8
  %18 = call noundef zeroext i1 @_ZN32pxrInternal_v0_24__pxrReserved__21Tf_FailedVerifyHelperERKNS_13TfCallContextEPKcS4_(ptr noundef nonnull align 8 dereferenceable(33) %2, ptr noundef nonnull @.str.80, ptr noundef null)
  br i1 %18, label %.critedge, label %22

.critedge:                                        ; preds = %15, %17
  %19 = load ptr, ptr %16, align 8
  %20 = getelementptr inbounds nuw i8, ptr %19, i64 24
  %21 = load ptr, ptr %20, align 8
  call void %21(ptr noundef nonnull align 8 dereferenceable(24) %16)
  br label %22

22:                                               ; preds = %17, %.critedge
  %23 = getelementptr inbounds nuw i8, ptr %.sroa.05.010, i64 8
  %.not8 = icmp eq ptr %23, %10
  br i1 %.not8, label %._crit_edge, label %15

._crit_edge:                                      ; preds = %22, %6
  %24 = getelementptr inbounds nuw i8, ptr %0, i64 40
  invoke void @_ZN3tbb6detail2d125concurrent_unordered_baseINS1_31concurrent_unordered_map_traitsINSt6thread2idESt4pairIN32pxrInternal_v0_24__pxrReserved__7SdfPathENS7_16HdSceneIndexPrimEESt4hashIS5_ESt8equal_toIS5_ENS1_13tbb_allocatorIS6_IKS5_SA_EEELb0EEEE14internal_clearEv(ptr noundef nonnull align 8 dereferenceable(592) %24)
          to label %_ZN3tbb6detail2d125concurrent_unordered_baseINS1_31concurrent_unordered_map_traitsINSt6thread2idESt4pairIN32pxrInternal_v0_24__pxrReserved__7SdfPathENS7_16HdSceneIndexPrimEESt4hashIS5_ESt8equal_toIS5_ENS1_13tbb_allocatorIS6_IKS5_SA_EEELb0EEEE5clearEv.exit unwind label %25

25:                                               ; preds = %._crit_edge
  %26 = landingpad { ptr, i32 }
          catch ptr null
  %27 = extractvalue { ptr, i32 } %26, 0
  call void @__clang_call_terminate(ptr %27) #29
  unreachable

_ZN3tbb6detail2d125concurrent_unordered_baseINS1_31concurrent_unordered_map_traitsINSt6thread2idESt4pairIN32pxrInternal_v0_24__pxrReserved__7SdfPathENS7_16HdSceneIndexPrimEESt4hashIS5_ESt8equal_toIS5_ENS1_13tbb_allocatorIS6_IKS5_SA_EEELb0EEEE5clearEv.exit: ; preds = %._crit_edge, %1
  ret void
}